target datalayout = "e-m:e-p270:32:32-p271:32:32-p272:64:64-i64:64-i128:128-f80:128-n8:16:32:64-S128"
target triple = "x86_64-pc-linux-gnu"

@.str = private unnamed_addr constant [18 x i8] c"test_kdf_tls1_prf\00", align 1
@.str.1 = private unnamed_addr constant [14 x i8] c"test_kdf_hkdf\00", align 1
@.str.2 = private unnamed_addr constant [16 x i8] c"test_kdf_scrypt\00", align 1

; Function Attrs: nounwind uwtable
define dso_local i32 @setup_tests() #0 {
  %1 = alloca i32, align 4
  call void @llvm.lifetime.start.p0(i64 4, ptr %1) #4
  store i32 1, ptr %1, align 4, !tbaa !4
  %2 = call i32 @fips_provider_version_ge(ptr noundef null, i32 noundef 3, i32 noundef 3, i32 noundef 1)
  %3 = icmp ne i32 %2, 0
  br i1 %3, label %4, label %5

4:                                                ; preds = %0
  store i32 2, ptr %1, align 4, !tbaa !4
  br label %5

5:                                                ; preds = %4, %0
  %6 = load i32, ptr %1, align 4, !tbaa !4
  call void @add_all_tests(ptr noundef @.str, ptr noundef @test_kdf_tls1_prf, i32 noundef %6, i32 noundef 1)
  %7 = load i32, ptr %1, align 4, !tbaa !4
  call void @add_all_tests(ptr noundef @.str.1, ptr noundef @test_kdf_hkdf, i32 noundef %7, i32 noundef 1)
  call void @add_test(ptr noundef @.str.2, ptr noundef @test_kdf_scrypt)
  call void @llvm.lifetime.end.p0(i64 4, ptr %1) #4
  ret i32 1
}