; Function Attrs: nounwind uwtable
define dso_local noundef i32 @setup_tests() local_unnamed_addr #0 {
  %1 = tail call i32 @fips_provider_version_ge(ptr noundef null, i32 noundef 3, i32 noundef 3, i32 noundef 1) #4
  %.not = icmp eq i32 %1, 0
  %spec.select = select i1 %.not, i32 1, i32 2
  tail call void @add_all_tests(ptr noundef nonnull @.str, ptr noundef nonnull @test_kdf_tls1_prf, i32 noundef %spec.select, i32 noundef 1) #4
  tail call void @add_all_tests(ptr noundef nonnull @.str.1, ptr noundef nonnull @test_kdf_hkdf, i32 noundef %spec.select, i32 noundef 1) #4
  tail call void @add_test(ptr noundef nonnull @.str.2, ptr noundef nonnull @test_kdf_scrypt) #4
  ret i32 1
}